ccollections
defaultdict
p0
(c__builtin__
dict
p1
tp2
Rp3
Vtaming_of_the_shrew
p4
(dp5
V1.0
p6
I3610
sV4.0
p7
I1220
sV0.1
p8
I2424
sV0.0
p9
I2151
sV3.4
p10
I696
sV3.2
p11
I1726
sV3.3
p12
I880
sV3.0
p13
I1714
sV3.1
p14
I1045
sV4.1
p15
I1685
sV2.1
p16
I2154
sV2.0
p17
I764
ssVlife_and_death_of_king_john
p18
(dp19
V4.5
p20
I400
sV4.4
p21
I209
sV4.1
p22
I1483
sV1.0
p23
I5067
sV4.0
p24
I658
sV4.3
p25
I518
sV4.2
p26
I164
sV0.0
p27
I2412
sV4.6
p28
I1035
sV3.2
p29
I1404
sV3.0
p30
I1227
sV3.1
p31
I2294
sV2.3
p32
I1571
sV2.2
p33
I663
sV2.1
p34
I103
sV2.0
p35
I2955
ssVhenry_vi_part_1
p36
(dp37
V1.4
p38
I1032
sV1.0
p39
I764
sV1.1
p40
I513
sV1.2
p41
I718
sV1.3
p42
I1170
sV0.1
p43
I1354
sV0.0
p44
I1496
sV0.3
p45
I984
sV0.2
p46
I898
sV0.5
p47
I266
sV0.4
p48
I402
sV3.6
p49
I864
sV3.4
p50
I511
sV3.5
p51
I511
sV3.2
p52
I453
sV3.3
p53
I399
sV3.0
p54
I1616
sV3.1
p55
I468
sV2.3
p56
I409
sV2.2
p57
I820
sV2.1
p58
I1283
sV2.0
p59
I1732
sV4.4
p60
I863
sV4.1
p61
I194
sV4.0
p62
I523
sV4.3
p63
I1418
sV4.2
p64
I1682
ssVhenry_vi_part_2
p65
(dp66
V1.0
p67
I1825
sV1.1
p68
I696
sV1.2
p69
I985
sV1.3
p70
I995
sV0.1
p71
I921
sV0.0
p72
I2126
sV0.3
p73
I731
sV0.2
p74
I1925
sV3.6
p75
I1163
sV3.7
p76
I624
sV3.4
p77
I126
sV3.5
p78
I153
sV3.2
p79
I173
sV3.3
p80
I531
sV3.0
p81
I1294
sV3.1
p82
I1568
sV2.2
p83
I322
sV2.1
p84
I3601
sV2.0
p85
I3254
sV3.8
p86
I460
sV3.9
p87
I824
sV4.1
p88
I817
sV4.0
p89
I1928
sV4.2
p90
I306
ssVhenry_vi_part_3
p91
(dp92
V1.4
p93
I1241
sV1.5
p94
I973
sV1.0
p95
I1803
sV1.1
p96
I1562
sV1.2
p97
I510
sV1.3
p98
I132
sV0.1
p99
I663
sV0.0
p100
I2510
sV0.3
p101
I1599
sV0.2
p102
I474
sV3.6
p103
I844
sV3.7
p104
I584
sV3.4
p105
I291
sV3.5
p106
I888
sV3.2
p107
I647
sV3.3
p108
I326
sV3.0
p109
I1341
sV3.1
p110
I259
sV2.2
p111
I2378
sV2.1
p112
I1910
sV2.0
p113
I982
sV4.5
p114
I847
sV4.4
p115
I883
sV4.6
p116
I429
sV4.1
p117
I483
sV4.0
p118
I1094
sV4.3
p119
I744
sV4.2
p120
I225
ssVmacbeth
p121
(dp122
V1.0
p123
I588
sV1.1
p124
I708
sV1.2
p125
I1344
sV1.3
p126
I383
sV0.1
p127
I546
sV0.0
p128
I94
sV0.3
p129
I509
sV0.2
p130
I1287
sV0.5
p131
I292
sV0.4
p132
I653
sV0.6
p133
I759
sV3.2
p134
I2056
sV3.0
p135
I1300
sV3.1
p136
I779
sV2.3
p137
I1363
sV2.2
p138
I245
sV2.1
p139
I498
sV2.0
p140
I1274
sV2.5
p141
I435
sV2.4
p142
I282
sV4.5
p143
I105
sV4.4
p144
I474
sV4.7
p145
I717
sV4.6
p146
I305
sV4.1
p147
I280
sV4.0
p148
I661
sV4.3
p149
I204
sV4.2
p150
I550
ssVhamlet
p151
(dp152
V4.1
p153
I3505
sV1.0
p154
I1035
sV1.1
p155
I5097
sV0.1
p156
I2222
sV0.0
p157
I1444
sV0.3
p158
I796
sV0.2
p159
I1140
sV0.4
p160
I1570
sV3.6
p161
I1707
sV3.4
p162
I1781
sV3.5
p163
I314
sV3.2
p164
I614
sV3.3
p165
I567
sV3.0
p166
I409
sV3.1
p167
I254
sV2.3
p168
I1920
sV2.2
p169
I857
sV2.1
p170
I3387
sV2.0
p171
I1650
sV4.0
p172
I2598
ssVrichard_iii
p173
(dp174
V1.0
p175
I1225
sV1.1
p176
I1382
sV1.2
p177
I465
sV1.3
p178
I699
sV0.1
p179
I2298
sV0.0
p180
I1337
sV0.3
p181
I2425
sV0.2
p182
I3121
sV3.4
p183
I165
sV3.2
p184
I488
sV3.3
p185
I4903
sV3.0
p186
I987
sV3.1
p187
I1128
sV2.3
p188
I1014
sV2.2
p189
I229
sV2.1
p190
I1101
sV2.0
p191
I1767
sV2.6
p192
I2037
sV2.5
p193
I138
sV2.4
p194
I907
sV4.4
p195
I371
sV4.1
p196
I220
sV4.0
p197
I260
sV4.3
p198
I143
sV4.2
p199
I3237
ssVtempest
p200
(dp201
V1.0
p202
I2678
sV1.1
p203
I1665
sV0.1
p204
I4450
sV0.0
p205
I592
sV3.0
p206
I2283
sV2.2
p207
I1090
sV2.1
p208
I1262
sV2.0
p209
I881
sV4.0
p210
I2859
ssVpericles
p211
(dp212
V1.4
p213
I790
sV1.0
p214
I1476
sV1.1
p215
I568
sV1.2
p216
I1006
sV1.3
p217
I512
sV0.1
p218
I1109
sV0.0
p219
I1456
sV0.3
p220
I918
sV0.2
p221
I369
sV3.4
p222
I97
sV3.5
p223
I1645
sV3.2
p224
I446
sV3.3
p225
I465
sV3.0
p226
I879
sV3.1
p227
I1228
sV2.3
p228
I152
sV2.2
p229
I391
sV2.1
p230
I947
sV2.0
p231
I674
sV4.1
p232
I139
sV4.0
p233
I2267
sV4.2
p234
I880
ssVtwelfth_night
p235
(dp236
V1.4
p237
I1710
sV1.0
p238
I419
sV1.1
p239
I367
sV1.2
p240
I1648
sV1.3
p241
I1059
sV0.1
p242
I523
sV0.0
p243
I358
sV0.3
p244
I378
sV0.2
p245
I1207
sV0.4
p246
I2657
sV3.2
p247
I316
sV3.0
p248
I593
sV3.1
p249
I1052
sV2.3
p250
I3459
sV2.2
p251
I428
sV2.1
p252
I772
sV2.0
p253
I1425
sV4.0
p254
I3463
ssVmerchant_of_venice
p255
(dp256
V1.4
p257
I484
sV1.5
p258
I601
sV1.6
p259
I677
sV1.7
p260
I441
sV1.0
p261
I406
sV1.1
p262
I1808
sV1.2
p263
I185
sV1.3
p264
I339
sV0.1
p265
I1205
sV0.0
p266
I1563
sV0.2
p267
I1503
sV1.8
p268
I844
sV4.0
p269
I2703
sV3.0
p270
I3948
sV3.1
p271
I195
sV2.3
p272
I707
sV2.2
p273
I326
sV2.1
p274
I2706
sV2.0
p275
I1106
sV2.4
p276
I780
ssVtitus_andronicus
p277
(dp278
V1.0
p279
I1120
sV1.1
p280
I273
sV1.2
p281
I2640
sV1.3
p282
I533
sV0.0
p283
I4274
sV4.2
p284
I1789
sV3.2
p285
I1068
sV3.3
p286
I940
sV3.0
p287
I1203
sV3.1
p288
I1623
sV4.1
p289
I1818
sV2.1
p290
I763
sV2.0
p291
I2677
sV4.0
p292
I1457
ssVlear
p293
(dp294
V1.0
p295
I1129
sV1.1
p296
I1433
sV1.2
p297
I167
sV1.3
p298
I2729
sV0.1
p299
I1560
sV0.0
p300
I2672
sV0.3
p301
I2875
sV0.2
p302
I248
sV0.4
p303
I417
sV3.6
p304
I895
sV3.4
p305
I349
sV3.5
p306
I2517
sV3.2
p307
I483
sV3.3
p308
I249
sV3.0
p309
I724
sV3.1
p310
I856
sV2.3
p311
I1624
sV2.2
p312
I237
sV2.1
p313
I773
sV2.0
p314
I474
sV2.6
p315
I997
sV2.5
p316
I977
sV2.4
p317
I214
sV4.1
p318
I139
sV4.0
p319
I644
sV4.2
p320
I3051
ssVloves_labors_lost
p321
(dp322
V1.0
p323
I2153
sV4.0
p324
I1234
sV0.1
p325
I1524
sV0.0
p326
I2506
sV3.2
p327
I3342
sV3.0
p328
I1437
sV3.1
p329
I1489
sV4.1
p330
I7988
sV2.0
p331
I1742
ssVtimon_of_athens
p332
(dp333
V4.1
p334
I160
sV1.0
p335
I321
sV1.1
p336
I1994
sV4.3
p337
I748
sV4.2
p338
I109
sV0.1
p339
I2282
sV0.0
p340
I2380
sV4.0
p341
I2037
sV3.2
p342
I4572
sV3.0
p343
I318
sV3.1
p344
I470
sV2.3
p345
I1023
sV2.2
p346
I394
sV2.1
p347
I771
sV2.0
p348
I553
sV2.5
p349
I1031
sV2.4
p350
I973
ssVhenry_viii
p351
(dp352
V4.4
p353
I770
sV1.0
p354
I1574
sV1.1
p355
I1406
sV1.2
p356
I973
sV1.3
p357
I2251
sV0.1
p358
I1952
sV0.0
p359
I2048
sV0.3
p360
I1140
sV0.2
p361
I629
sV4.3
p362
I853
sV4.2
p363
I1690
sV3.0
p364
I1329
sV3.1
p365
I1675
sV4.1
p366
I354
sV2.1
p367
I4168
sV2.0
p368
I1643
sV4.0
p369
I1671
ssVcoriolanus
p370
(dp371
V0.9
p372
I316
sV0.8
p373
I862
sV1.0
p374
I2337
sV1.1
p375
I1455
sV1.2
p376
I2316
sV0.1
p377
I337
sV0.0
p378
I2409
sV0.3
p379
I686
sV0.2
p380
I996
sV0.5
p381
I804
sV0.4
p382
I260
sV0.7
p383
I172
sV0.6
p384
I100
sV3.6
p385
I510
sV3.4
p386
I2037
sV3.5
p387
I1412
sV3.2
p388
I435
sV3.3
p389
I247
sV3.0
p390
I523
sV3.1
p391
I537
sV2.2
p392
I1253
sV2.1
p393
I1323
sV2.0
p394
I2984
sV4.5
p395
I1416
sV4.4
p396
I81
sV4.1
p397
I976
sV4.0
p398
I679
sV4.3
p399
I595
sV4.2
p400
I1847
ssValls_well_that_ends_well
p401
(dp402
V1.4
p403
I797
sV1.0
p404
I1832
sV1.1
p405
I595
sV1.2
p406
I2593
sV1.3
p407
I481
sV0.1
p408
I669
sV0.0
p409
I1880
sV0.2
p410
I2174
sV3.4
p411
I916
sV3.2
p412
I2936
sV3.3
p413
I323
sV3.0
p414
I820
sV3.1
p415
I704
sV2.3
p416
I365
sV2.2
p417
I120
sV2.1
p418
I1133
sV2.0
p419
I215
sV2.6
p420
I425
sV2.5
p421
I1059
sV2.4
p422
I902
sV4.1
p423
I482
sV4.0
p424
I345
sV4.2
p425
I3032
ssVcymbeline
p426
(dp427
V1.4
p428
I313
sV1.0
p429
I560
sV1.1
p430
I480
sV1.2
p431
I1395
sV1.3
p432
I1413
sV0.1
p433
I328
sV0.0
p434
I1667
sV0.3
p435
I1495
sV0.2
p436
I379
sV0.5
p437
I1777
sV0.4
p438
I809
sV3.2
p439
I442
sV3.3
p440
I501
sV3.0
p441
I254
sV3.1
p442
I3700
sV2.3
p443
I1714
sV2.2
p444
I976
sV2.1
p445
I748
sV2.0
p446
I756
sV2.6
p447
I144
sV2.5
p448
I893
sV2.4
p449
I1486
sV4.4
p450
I4328
sV4.1
p451
I259
sV4.0
p452
I301
sV4.3
p453
I1742
sV4.2
p454
I915
ssVtwo_gentlemen_of_verona
p455
(dp456
V1.4
p457
I424
sV1.5
p458
I346
sV1.6
p459
I763
sV1.0
p460
I1370
sV1.1
p461
I190
sV1.2
p462
I576
sV1.3
p463
I1715
sV0.1
p464
I1203
sV0.0
p465
I1242
sV0.2
p466
I752
sV4.2
p467
I137
sV4.3
p468
I1451
sV3.2
p469
I377
sV3.3
p470
I1792
sV3.0
p471
I641
sV3.1
p472
I1124
sV4.1
p473
I477
sV2.1
p474
I784
sV2.0
p475
I3091
sV4.0
p476
I109
ssVromeo_and_juliet
p477
(dp478
V1.4
p479
I725
sV1.5
p480
I322
sV1.0
p481
I388
sV1.1
p482
I1700
sV1.2
p483
I827
sV1.3
p484
I1784
sV0.1
p485
I871
sV0.0
p486
I2034
sV0.3
p487
I992
sV0.2
p488
I967
sV0.4
p489
I1308
sV3.4
p490
I1227
sV3.2
p491
I516
sV3.3
p492
I292
sV3.0
p493
I1113
sV3.1
p494
I432
sV2.3
p495
I335
sV2.2
p496
I1507
sV2.1
p497
I1225
sV2.0
p498
I1737
sV2.4
p499
I2175
sV4.1
p500
I258
sV4.0
p501
I745
sV4.2
p502
I2775
ssVothello
p503
(dp504
V4.1
p505
I3323
sV1.0
p506
I2728
sV1.1
p507
I116
sV1.2
p508
I3205
sV0.1
p509
I911
sV0.0
p510
I1586
sV0.2
p511
I3484
sV3.2
p512
I937
sV3.0
p513
I2401
sV3.1
p514
I2156
sV2.3
p515
I1726
sV2.2
p516
I4194
sV2.1
p517
I67
sV2.0
p518
I505
sV4.0
p519
I1179
ssVantony_and_cleopatra
p520
(dp521
V1.4
p522
I1127
sV1.5
p523
I1241
sV1.6
p524
I1295
sV1.0
p525
I452
sV1.1
p526
I2133
sV1.2
p527
I392
sV1.3
p528
I95
sV0.1
p529
I1621
sV0.0
p530
I586
sV0.3
p531
I741
sV0.2
p532
I943
sV3.14
p533
I816
sV0.4
p534
I666
sV3.6
p535
I175
sV3.7
p536
I369
sV2.9
p537
I363
sV2.8
p538
I47
sV3.2
p539
I259
sV3.3
p540
I386
sV3.0
p541
I168
sV3.1
p542
I461
sV2.3
p543
I323
sV2.2
p544
I451
sV2.1
p545
I657
sV2.0
p546
I333
sV2.7
p547
I53
sV2.6
p548
I749
sV2.5
p549
I829
sV2.4
p550
I211
sV4.1
p551
I3321
sV4.0
p552
I705
sV3.10
p553
I50
sV3.8
p554
I316
sV3.12
p555
I102
sV3.11
p556
I460
sV3.9
p557
I94
sV2.12
p558
I1842
sV2.11
p559
I334
sV2.10
p560
I634
sV3.13
p561
I1311
sV3.4
p562
I184
sV3.5
p563
I335
ssVwinters_tale
p564
(dp565
V4.1
p566
I1608
sV1.0
p567
I1831
sV1.1
p568
I585
sV1.2
p569
I1871
sV4.2
p570
I1400
sV0.1
p571
I4097
sV0.0
p572
I381
sV3.2
p573
I1084
sV3.3
p574
I7419
sV3.0
p575
I282
sV3.1
p576
I502
sV2.2
p577
I1244
sV2.1
p578
I2083
sV2.0
p579
I194
sV4.0
p580
I2059
ssVhenry_iv_part_i
p581
(dp582
V4.4
p583
I389
sV4.1
p584
I868
sV1.0
p585
I871
sV1.1
p586
I986
sV1.2
p587
I1066
sV1.3
p588
I4832
sV0.1
p589
I1922
sV0.0
p590
I867
sV0.2
p591
I2488
sV4.2
p592
I633
sV4.3
p593
I1616
sV3.2
p594
I971
sV3.3
p595
I355
sV3.0
p596
I1183
sV3.1
p597
I734
sV2.2
p598
I1879
sV2.1
p599
I1443
sV2.0
p600
I2240
sV4.0
p601
I1227
ssVjulius_caesar
p602
(dp603
V4.4
p604
I739
sV4.1
p605
I62
sV1.0
p606
I2830
sV1.1
p607
I1132
sV1.2
p608
I131
sV1.3
p609
I431
sV0.1
p610
I2766
sV0.0
p611
I640
sV0.2
p612
I1387
sV4.3
p613
I298
sV3.2
p614
I2633
sV4.2
p615
I960
sV3.0
p616
I435
sV3.1
p617
I421
sV2.2
p618
I323
sV2.1
p619
I2346
sV2.0
p620
I2539
sV4.0
p621
I1074
ssVas_you_like_it
p622
(dp623
V1.4
p624
I437
sV1.5
p625
I182
sV1.6
p626
I1692
sV1.0
p627
I584
sV1.1
p628
I180
sV1.2
p629
I638
sV1.3
p630
I855
sV0.1
p631
I2375
sV0.0
p632
I1509
sV0.2
p633
I1191
sV3.2
p634
I1498
sV3.0
p635
I1785
sV3.1
p636
I152
sV2.3
p637
I494
sV2.2
p638
I860
sV2.1
p639
I3433
sV2.0
p640
I167
sV2.4
p641
I1258
sV4.1
p642
I1077
sV4.0
p643
I513
sV4.3
p644
I1695
sV4.2
p645
I324
ssVhenry_v
p646
(dp647
V1.0
p648
I1084
sV1.1
p649
I1596
sV1.2
p650
I529
sV1.3
p651
I1230
sV0.1
p652
I2557
sV0.0
p653
I796
sV3.6
p654
I1643
sV3.7
p655
I1100
sV3.4
p656
I214
sV3.5
p657
I340
sV3.2
p658
I1195
sV3.3
p659
I607
sV3.0
p660
I2734
sV3.1
p661
I525
sV2.3
p662
I456
sV2.2
p663
I501
sV2.1
p664
I1263
sV2.0
p665
I307
sV2.6
p666
I1283
sV2.5
p667
I1519
sV2.4
p668
I571
sV4.1
p669
I3352
sV4.0
p670
I783
ssVmuch_ado_about_nothing
p671
(dp672
V4.1
p673
I820
sV1.0
p674
I3232
sV1.1
p675
I455
sV1.2
p676
I2271
sV4.2
p677
I242
sV0.1
p678
I239
sV0.0
p679
I2674
sV0.2
p680
I617
sV4.3
p681
I1185
sV4.0
p682
I2850
sV3.0
p683
I2744
sV3.1
p684
I682
sV2.3
p685
I762
sV2.2
p686
I1459
sV2.1
p687
I1064
sV2.0
p688
I985
sV2.4
p689
I541
ssVmidsummer_nights_dream
p690
(dp691
V1.0
p692
I2232
sV1.1
p693
I1245
sV0.1
p694
I844
sV0.0
p695
I2056
sV3.0
p696
I1845
sV3.1
p697
I386
sV2.1
p698
I3918
sV2.0
p699
I1645
sV4.0
p700
I3290
ssVrichard_ii
p701
(dp702
V4.5
p703
I469
sV4.4
p704
I1084
sV4.1
p705
I1146
sV1.0
p706
I2633
sV1.1
p707
I1261
sV1.2
p708
I1510
sV1.3
p709
I221
sV0.1
p710
I632
sV0.0
p711
I1766
sV0.3
p712
I550
sV0.2
p713
I2683
sV4.2
p714
I1347
sV3.0
p715
I2960
sV4.3
p716
I111
sV2.3
p717
I940
sV2.2
p718
I1824
sV2.1
p719
I1918
sV2.0
p720
I397
sV4.0
p721
I919
ssVmeasure_for_measure
p722
(dp723
V1.0
p724
I2353
sV1.1
p725
I1728
sV1.2
p726
I393
sV1.3
p727
I1579
sV0.1
p728
I1521
sV0.0
p729
I701
sV0.3
p730
I770
sV0.2
p731
I476
sV3.4
p732
I138
sV3.5
p733
I150
sV3.2
p734
I1538
sV3.3
p735
I289
sV3.0
p736
I676
sV3.1
p737
I1847
sV2.1
p738
I2347
sV2.0
p739
I2350
sV4.0
p740
I4699
ssVcomedy_of_errors
p741
(dp742
V1.0
p743
I1030
sV1.1
p744
I1968
sV0.1
p745
I959
sV0.0
p746
I1257
sV3.2
p747
I874
sV3.3
p748
I1582
sV3.0
p749
I1101
sV3.1
p750
I679
sV2.1
p751
I1716
sV2.0
p752
I1400
sV4.0
p753
I3849
ssVhenry_iv_part_ii
p754
(dp755
V4.4
p756
I959
sV1.0
p757
I1722
sV1.1
p758
I1493
sV1.2
p759
I590
sV1.3
p760
I3289
sV0.1
p761
I2335
sV0.0
p762
I1877
sV0.2
p763
I921
sV4.2
p764
I1102
sV4.3
p765
I289
sV3.4
p766
I2078
sV3.2
p767
I1214
sV3.3
p768
I1140
sV3.0
p769
I1895
sV3.1
p770
I1095
sV4.1
p771
I1246
sV2.1
p772
I2830
sV2.0
p773
I904
sV4.0
p774
I752
ssVmerry_wives_of_windsor
p775
(dp776
V1.0
p777
I1977
sV1.1
p778
I2668
sV1.2
p779
I777
sV0.1
p780
I123
sV0.0
p781
I2469
sV0.3
p782
I1464
sV0.2
p783
I838
sV3.4
p784
I1042
sV3.5
p785
I471
sV3.2
p786
I116
sV3.3
p787
I819
sV3.0
p788
I605
sV3.1
p789
I1849
sV2.3
p790
I970
sV2.2
p791
I1994
sV2.1
p792
I790
sV2.0
p793
I978
sV2.4
p794
I1271
sV4.4
p795
I2185
sV4.1
p796
I134
sV4.0
p797
I297
sV4.3
p798
I51
sV4.2
p799
I228
ssVtroilus_and_cressida
p800
(dp801
V1.0
p802
I985
sV1.1
p803
I1737
sV1.2
p804
I2127
sV0.1
p805
I2398
sV0.0
p806
I1027
sV0.2
p807
I3065
sV3.4
p808
I2533
sV3.2
p809
I117
sV3.3
p810
I1264
sV3.0
p811
I685
sV3.1
p812
I967
sV2.2
p813
I2522
sV2.1
p814
I1770
sV2.0
p815
I1173
sV4.5
p816
I309
sV4.4
p817
I378
sV4.7
p818
I223
sV4.6
p819
I205
sV4.1
p820
I1637
sV4.0
p821
I884
sV4.3
p822
I326
sV4.2
p823
I992
sV4.9
p824
I513
sV4.8
p825
I101
ss.